; ModuleID = '53/722.c'
source_filename = "53/722.c"
target datalayout = "e-m:e-p270:32:32-p271:32:32-p272:64:64-i64:64-f80:128-n8:16:32:64-S128"
target triple = "x86_64-pc-linux-gnu"

@.str = private unnamed_addr constant [3 x i8] c"%d\00", align 1
@.str.1 = private unnamed_addr constant [4 x i8] c"%d,\00", align 1

; Function Attrs: noinline nounwind uwtable
define dso_local void @main() #0 {
  %1 = alloca [300 x i32], align 16
  %2 = alloca [300 x i32], align 16
  %3 = alloca i32, align 4
  %4 = alloca i32, align 4
  %5 = alloca i32, align 4
  %6 = alloca i32*, align 8
  %7 = alloca i32*, align 8
  store i32 1, i32* %5, align 4
  %8 = call i32 (i8*, ...) @__isoc99_scanf(i8* getelementptr inbounds ([3 x i8], [3 x i8]* @.str, i64 0, i64 0), i32* %3)
  store i32 0, i32* %4, align 4
  br label %9

9:                                                ; preds = %18, %0
  %10 = load i32, i32* %4, align 4
  %11 = load i32, i32* %3, align 4
  %12 = icmp slt i32 %10, %11
  br i1 %12, label %13, label %21

13:                                               ; preds = %9
  %14 = load i32, i32* %4, align 4
  %15 = sext i32 %14 to i64
  %16 = getelementptr inbounds [300 x i32], [300 x i32]* %1, i64 0, i64 %15
  %17 = call i32 (i8*, ...) @__isoc99_scanf(i8* getelementptr inbounds ([3 x i8], [3 x i8]* @.str, i64 0, i64 0), i32* %16)
  br label %18

18:                                               ; preds = %13
  %19 = load i32, i32* %4, align 4
  %20 = add nsw i32 %19, 1
  store i32 %20, i32* %4, align 4
  br label %9

21:                                               ; preds = %9
  %22 = getelementptr inbounds [300 x i32], [300 x i32]* %1, i64 0, i64 0
  %23 = load i32, i32* %22, align 16
  %24 = getelementptr inbounds [300 x i32], [300 x i32]* %2, i64 0, i64 0
  store i32 %23, i32* %24, align 16
  %25 = getelementptr inbounds [300 x i32], [300 x i32]* %1, i64 0, i64 0
  %26 = getelementptr inbounds i32, i32* %25, i64 1
  store i32* %26, i32** %6, align 8
  br label %27

27:                                               ; preds = %61, %21
  %28 = load i32*, i32** %6, align 8
  %29 = getelementptr inbounds [300 x i32], [300 x i32]* %1, i64 0, i64 0
  %30 = load i32, i32* %3, align 4
  %31 = sext i32 %30 to i64
  %32 = getelementptr inbounds i32, i32* %29, i64 %31
  %33 = icmp ult i32* %28, %32
  br i1 %33, label %34, label %64

34:                                               ; preds = %27
  %35 = load i32*, i32** %6, align 8
  %36 = getelementptr inbounds i32, i32* %35, i64 -1
  store i32* %36, i32** %7, align 8
  br label %37

37:                                               ; preds = %49, %34
  %38 = load i32*, i32** %7, align 8
  %39 = getelementptr inbounds [300 x i32], [300 x i32]* %1, i64 0, i64 0
  %40 = icmp uge i32* %38, %39
  br i1 %40, label %41, label %52

41:                                               ; preds = %37
  %42 = load i32*, i32** %7, align 8
  %43 = load i32, i32* %42, align 4
  %44 = load i32*, i32** %6, align 8
  %45 = load i32, i32* %44, align 4
  %46 = icmp eq i32 %43, %45
  br i1 %46, label %47, label %48

47:                                               ; preds = %41
  br label %60

48:                                               ; preds = %41
  br label %49

49:                                               ; preds = %48
  %50 = load i32*, i32** %7, align 8
  %51 = getelementptr inbounds i32, i32* %50, i32 -1
  store i32* %51, i32** %7, align 8
  br label %37

52:                                               ; preds = %37
  %53 = load i32*, i32** %6, align 8
  %54 = load i32, i32* %53, align 4
  %55 = load i32, i32* %5, align 4
  %56 = sext i32 %55 to i64
  %57 = getelementptr inbounds [300 x i32], [300 x i32]* %2, i64 0, i64 %56
  store i32 %54, i32* %57, align 4
  %58 = load i32, i32* %5, align 4
  %59 = add nsw i32 %58, 1
  store i32 %59, i32* %5, align 4
  br label %60

60:                                               ; preds = %52, %47
  br label %61

61:                                               ; preds = %60
  %62 = load i32*, i32** %6, align 8
  %63 = getelementptr inbounds i32, i32* %62, i32 1
  store i32* %63, i32** %6, align 8
  br label %27

64:                                               ; preds = %27
  store i32 0, i32* %4, align 4
  br label %65

65:                                               ; preds = %76, %64
  %66 = load i32, i32* %4, align 4
  %67 = load i32, i32* %5, align 4
  %68 = sub nsw i32 %67, 1
  %69 = icmp slt i32 %66, %68
  br i1 %69, label %70, label %79

70:                                               ; preds = %65
  %71 = load i32, i32* %4, align 4
  %72 = sext i32 %71 to i64
  %73 = getelementptr inbounds [300 x i32], [300 x i32]* %2, i64 0, i64 %72
  %74 = load i32, i32* %73, align 4
  %75 = call i32 (i8*, ...) @printf(i8* getelementptr inbounds ([4 x i8], [4 x i8]* @.str.1, i64 0, i64 0), i32 %74)
  br label %76

76:                                               ; preds = %70
  %77 = load i32, i32* %4, align 4
  %78 = add nsw i32 %77, 1
  store i32 %78, i32* %4, align 4
  br label %65

79:                                               ; preds = %65
  %80 = load i32, i32* %5, align 4
  %81 = sub nsw i32 %80, 1
  %82 = sext i32 %81 to i64
  %83 = getelementptr inbounds [300 x i32], [300 x i32]* %2, i64 0, i64 %82
  %84 = load i32, i32* %83, align 4
  %85 = call i32 (i8*, ...) @printf(i8* getelementptr inbounds ([3 x i8], [3 x i8]* @.str, i64 0, i64 0), i32 %84)
  ret void
}

declare dso_local i32 @__isoc99_scanf(i8*, ...) #1

declare dso_local i32 @printf(i8*, ...) #1


!llvm.module.flags = !{!0}
!llvm.ident = !{!1}

!0 = !{i32 1, !"wchar_size", i32 4}
!1 = !{!"clang version 10.0.0-4ubuntu1 "}
